; Function Attrs: nofree norecurse nosync nounwind memory(argmem: readwrite) uwtable
define hidden void @aom_dc_predictor_4x16_c(ptr nocapture noundef writeonly %0, i64 noundef %1, ptr nocapture noundef readonly %2, ptr nocapture noundef readonly %3) local_unnamed_addr #0 {
  br label %.lr.ph.i

.lr.ph.i:                                         ; preds = %.lr.ph.i, %4
  %indvars.iv.i = phi i64 [ 0, %4 ], [ %indvars.iv.next.i, %.lr.ph.i ]
  %.02730.i = phi i32 [ 0, %4 ], [ %8, %.lr.ph.i ]
  %5 = getelementptr inbounds i8, ptr %2, i64 %indvars.iv.i
  %6 = load i8, ptr %5, align 1
  %7 = zext i8 %6 to i32
  %8 = add nuw nsw i32 %.02730.i, %7
  %indvars.iv.next.i = add nuw nsw i64 %indvars.iv.i, 1
  %exitcond.not.i = icmp eq i64 %indvars.iv.next.i, 4
  br i1 %exitcond.not.i, label %.lr.ph34.i, label %.lr.ph.i, !llvm.loop !4

.lr.ph34.i:                                       ; preds = %.lr.ph.i, %.lr.ph34.i
  %indvars.iv43.i = phi i64 [ %indvars.iv.next44.i, %.lr.ph34.i ], [ 0, %.lr.ph.i ]
  %.132.i = phi i32 [ %12, %.lr.ph34.i ], [ %8, %.lr.ph.i ]
  %9 = getelementptr inbounds i8, ptr %3, i64 %indvars.iv43.i
  %10 = load i8, ptr %9, align 1
  %11 = zext i8 %10 to i32
  %12 = add nuw nsw i32 %.132.i, %11
  %indvars.iv.next44.i = add nuw nsw i64 %indvars.iv43.i, 1
  %exitcond47.not.i = icmp eq i64 %indvars.iv.next44.i, 16
  br i1 %exitcond47.not.i, label %._crit_edge.i, label %.lr.ph34.i, !llvm.loop !6

._crit_edge.i:                                    ; preds = %.lr.ph34.i
  %13 = add nuw nsw i32 %12, 10
  %14 = lshr i32 %13, 2
  %15 = mul nuw nsw i32 %14, 13108
  %16 = lshr i32 %15, 16
  %17 = trunc i32 %16 to i8
  br label %18

18:                                               ; preds = %18, %._crit_edge.i
  %.037.i = phi i32 [ 0, %._crit_edge.i ], [ %20, %18 ]
  %.02436.i = phi ptr [ %0, %._crit_edge.i ], [ %19, %18 ]
  tail call void @llvm.memset.p0.i64(ptr noundef nonnull align 1 dereferenceable(4) %.02436.i, i8 %17, i64 4, i1 false)
  %19 = getelementptr inbounds i8, ptr %.02436.i, i64 %1
  %20 = add nuw nsw i32 %.037.i, 1
  %exitcond48.not.i = icmp eq i32 %20, 16
  br i1 %exitcond48.not.i, label %dc_predictor_rect.exit, label %18, !llvm.loop !7

dc_predictor_rect.exit:                           ; preds = %18
  ret void
}